; Function Attrs: mustprogress nofree norecurse nosync nounwind willreturn memory(argmem: read) uwtable
define dso_local noundef i32 @_ZN4Luau7CodeGen3X6413IrRegAllocX6418findSpillStackSlotENS0_11IrValueKindE(ptr nocapture noundef nonnull readonly align 8 dereferenceable(256) %0, i8 noundef zeroext %1) local_unnamed_addr #3 align 2 {
  %3 = getelementptr inbounds i8, ptr %0, i64 192
  %4 = icmp eq i8 %1, 6
  br i1 %4, label %_ZNKSt6bitsetILm256EE4testEm.exit.us, label %_ZNKSt6bitsetILm256EE4testEm.exit

_ZNKSt6bitsetILm256EE4testEm.exit.us:             ; preds = %2, %20
  %.011.us = phi i32 [ %21, %20 ], [ 0, %2 ]
  %5 = zext nneg i32 %.011.us to i64
  %6 = lshr i64 %5, 6
  %7 = getelementptr inbounds [4 x i64], ptr %3, i64 0, i64 %6
  %8 = load i64, ptr %7, align 8
  %9 = and i64 %5, 63
  %10 = shl nuw i64 1, %9
  %11 = and i64 %8, %10
  %.not.us = icmp eq i64 %11, 0
  br i1 %.not.us, label %_ZNKSt6bitsetILm256EE4testEm.exit9.us, label %20

_ZNKSt6bitsetILm256EE4testEm.exit9.us:            ; preds = %_ZNKSt6bitsetILm256EE4testEm.exit.us
  %12 = add nuw nsw i32 %.011.us, 1
  %13 = zext nneg i32 %12 to i64
  %14 = lshr i64 %13, 6
  %15 = getelementptr inbounds [4 x i64], ptr %3, i64 0, i64 %14
  %16 = load i64, ptr %15, align 8
  %17 = and i64 %13, 63
  %18 = shl nuw i64 1, %17
  %19 = and i64 %16, %18
  %.not10.us = icmp eq i64 %19, 0
  br i1 %.not10.us, label %.split13.us, label %20

20:                                               ; preds = %_ZNKSt6bitsetILm256EE4testEm.exit9.us, %_ZNKSt6bitsetILm256EE4testEm.exit.us
  %.1.us = phi i32 [ %.011.us, %_ZNKSt6bitsetILm256EE4testEm.exit.us ], [ %12, %_ZNKSt6bitsetILm256EE4testEm.exit9.us ]
  %21 = add nuw nsw i32 %.1.us, 1
  %22 = icmp ult i32 %.1.us, 254
  br i1 %22, label %_ZNKSt6bitsetILm256EE4testEm.exit.us, label %.split13.us, !llvm.loop !7

_ZNKSt6bitsetILm256EE4testEm.exit:                ; preds = %2, %29
  %indvars.iv = phi i64 [ %indvars.iv.next, %29 ], [ 0, %2 ]
  %23 = lshr i64 %indvars.iv, 6
  %24 = getelementptr inbounds [4 x i64], ptr %3, i64 0, i64 %23
  %25 = load i64, ptr %24, align 8
  %26 = and i64 %indvars.iv, 63
  %27 = shl nuw i64 1, %26
  %28 = and i64 %25, %27
  %.not = icmp eq i64 %28, 0
  br i1 %.not, label %.split13.us.loopexit18.split.loop.exit20, label %29

29:                                               ; preds = %_ZNKSt6bitsetILm256EE4testEm.exit
  %indvars.iv.next = add nuw nsw i64 %indvars.iv, 1
  %exitcond.not = icmp eq i64 %indvars.iv.next, 255
  br i1 %exitcond.not, label %.split13.us, label %_ZNKSt6bitsetILm256EE4testEm.exit, !llvm.loop !7

.split13.us.loopexit18.split.loop.exit20:         ; preds = %_ZNKSt6bitsetILm256EE4testEm.exit
  %30 = trunc nuw nsw i64 %indvars.iv to i32
  br label %.split13.us

.split13.us:                                      ; preds = %29, %_ZNKSt6bitsetILm256EE4testEm.exit9.us, %20, %.split13.us.loopexit18.split.loop.exit20
  %.us-phi = phi i32 [ %30, %.split13.us.loopexit18.split.loop.exit20 ], [ %.011.us, %_ZNKSt6bitsetILm256EE4testEm.exit9.us ], [ -1, %20 ], [ -1, %29 ]
  ret i32 %.us-phi
}